target datalayout = "e-m:e-p270:32:32-p271:32:32-p272:64:64-i64:64-i128:128-f80:128-n8:16:32:64-S128"
target triple = "x86_64-pc-linux-gnu"

%struct._ir_insn = type { %struct.anon, %union.anon.6 }
%struct.anon = type { %union.anon.0, %union.anon.5 }
%union.anon.0 = type { i32 }
%union.anon.5 = type { i32 }
%union.anon.6 = type { %union._ir_val }
%union._ir_val = type { double }
%struct._ir_ctx = type { ptr, i32, i32, i32, i32, i32, i32, i32, i32, i32, i32, %struct._ir_insn, ptr, ptr, ptr, i32, i32, i32, ptr, ptr, ptr, ptr, ptr, i32, i32, i64, i32, i32, i32, i64, i32, i32, i32, i32, ptr, ptr, ptr, ptr, ptr, ptr, %union.anon.14, ptr, i32, i32, i32, i64, i32, i32, i32, ptr, ptr, ptr, ptr, %struct._ir_strtab, [61 x i32], [14 x i32] }
%union.anon.14 = type { ptr }
%struct._ir_strtab = type { ptr, i32, i32, i32, i32, ptr, i32, i32 }
%struct._ir_backend_data = type { %struct._ir_reg_alloc_data, i32, ptr, ptr, i32, i32, i8, i8, i8, i8, i8 }
%struct._ir_reg_alloc_data = type { i32, i32, i32, ptr }

@ir_type_size = external constant [14 x i8], align 1

; Function Attrs: nounwind uwtable
define internal void @ir_emit_mov_ext(ptr noundef %0, i32 noundef %1, i8 noundef signext %2, i8 noundef signext %3) #0 {
  %5 = alloca ptr, align 8
  %6 = alloca i32, align 4
  %7 = alloca i8, align 1
  %8 = alloca i8, align 1
  %9 = alloca ptr, align 8
  %10 = alloca ptr, align 8
  store ptr %0, ptr %5, align 8
  store i32 %1, ptr %6, align 4
  store i8 %2, ptr %7, align 1
  store i8 %3, ptr %8, align 1
  %11 = load ptr, ptr %5, align 8
  %12 = getelementptr inbounds %struct._ir_ctx, ptr %11, i32 0, i32 40
  %13 = load ptr, ptr %12, align 8
  store ptr %13, ptr %9, align 8
  %14 = load ptr, ptr %9, align 8
  %15 = getelementptr inbounds %struct._ir_backend_data, ptr %14, i32 0, i32 2
  store ptr %15, ptr %10, align 8
  %16 = load i32, ptr %6, align 4
  %17 = zext i32 %16 to i64
  %18 = getelementptr inbounds [14 x i8], ptr @ir_type_size, i64 0, i64 %17
  %19 = load i8, ptr %18, align 1
  %20 = zext i8 %19 to i32
  %21 = icmp sgt i32 %20, 2
  br i1 %21, label %22, label %54

22:                                               ; preds = %4
  %23 = load i32, ptr %6, align 4
  %24 = zext i32 %23 to i64
  %25 = getelementptr inbounds [14 x i8], ptr @ir_type_size, i64 0, i64 %24
  %26 = load i8, ptr %25, align 1
  %27 = zext i8 %26 to i32
  switch i32 %27, label %28 [
    i32 1, label %29
    i32 2, label %35
    i32 4, label %41
    i32 8, label %47
  ]

28:                                               ; preds = %22
  br label %29

29:                                               ; preds = %28, %22
  %30 = load ptr, ptr %10, align 8
  %31 = load i8, ptr %8, align 1
  %32 = sext i8 %31 to i32
  %33 = load i8, ptr %7, align 1
  %34 = sext i8 %33 to i32
  call void (ptr, i32, ...) @dasm_put(ptr noundef %30, i32 noundef 2123, i32 noundef %32, i32 noundef %34)
  br label %53

35:                                               ; preds = %22
  %36 = load ptr, ptr %10, align 8
  %37 = load i8, ptr %8, align 1
  %38 = sext i8 %37 to i32
  %39 = load i8, ptr %7, align 1
  %40 = sext i8 %39 to i32
  call void (ptr, i32, ...) @dasm_put(ptr noundef %36, i32 noundef 2131, i32 noundef %38, i32 noundef %40)
  br label %53

41:                                               ; preds = %22
  %42 = load ptr, ptr %10, align 8
  %43 = load i8, ptr %8, align 1
  %44 = sext i8 %43 to i32
  %45 = load i8, ptr %7, align 1
  %46 = sext i8 %45 to i32
  call void (ptr, i32, ...) @dasm_put(ptr noundef %42, i32 noundef 2132, i32 noundef %44, i32 noundef %46)
  br label %53

47:                                               ; preds = %22
  %48 = load ptr, ptr %10, align 8
  %49 = load i8, ptr %8, align 1
  %50 = sext i8 %49 to i32
  %51 = load i8, ptr %7, align 1
  %52 = sext i8 %51 to i32
  call void (ptr, i32, ...) @dasm_put(ptr noundef %48, i32 noundef 2140, i32 noundef %50, i32 noundef %52)
  br label %53

53:                                               ; preds = %47, %41, %35, %29
  br label %100

54:                                               ; preds = %4
  %55 = load i32, ptr %6, align 4
  %56 = zext i32 %55 to i64
  %57 = getelementptr inbounds [14 x i8], ptr @ir_type_size, i64 0, i64 %56
  %58 = load i8, ptr %57, align 1
  %59 = zext i8 %58 to i32
  %60 = icmp eq i32 %59, 2
  br i1 %60, label %61, label %80

61:                                               ; preds = %54
  %62 = load i32, ptr %6, align 4
  %63 = icmp uge i32 %62, 7
  br i1 %63, label %64, label %73

64:                                               ; preds = %61
  %65 = load i32, ptr %6, align 4
  %66 = icmp ult i32 %65, 12
  br i1 %66, label %67, label %73

67:                                               ; preds = %64
  %68 = load ptr, ptr %10, align 8
  %69 = load i8, ptr %7, align 1
  %70 = sext i8 %69 to i32
  %71 = load i8, ptr %8, align 1
  %72 = sext i8 %71 to i32
  call void (ptr, i32, ...) @dasm_put(ptr noundef %68, i32 noundef 2173, i32 noundef %70, i32 noundef %72)
  br label %79

73:                                               ; preds = %64, %61
  %74 = load ptr, ptr %10, align 8
  %75 = load i8, ptr %7, align 1
  %76 = sext i8 %75 to i32
  %77 = load i8, ptr %8, align 1
  %78 = sext i8 %77 to i32
  call void (ptr, i32, ...) @dasm_put(ptr noundef %74, i32 noundef 2182, i32 noundef %76, i32 noundef %78)
  br label %79

79:                                               ; preds = %73, %67
  br label %99

80:                                               ; preds = %54
  %81 = load i32, ptr %6, align 4
  %82 = icmp uge i32 %81, 7
  br i1 %82, label %83, label %92

83:                                               ; preds = %80
  %84 = load i32, ptr %6, align 4
  %85 = icmp ult i32 %84, 12
  br i1 %85, label %86, label %92

86:                                               ; preds = %83
  %87 = load ptr, ptr %10, align 8
  %88 = load i8, ptr %7, align 1
  %89 = sext i8 %88 to i32
  %90 = load i8, ptr %8, align 1
  %91 = sext i8 %90 to i32
  call void (ptr, i32, ...) @dasm_put(ptr noundef %87, i32 noundef 2191, i32 noundef %89, i32 noundef %91)
  br label %98

92:                                               ; preds = %83, %80
  %93 = load ptr, ptr %10, align 8
  %94 = load i8, ptr %7, align 1
  %95 = sext i8 %94 to i32
  %96 = load i8, ptr %8, align 1
  %97 = sext i8 %96 to i32
  call void (ptr, i32, ...) @dasm_put(ptr noundef %93, i32 noundef 2200, i32 noundef %95, i32 noundef %97)
  br label %98

98:                                               ; preds = %92, %86
  br label %99

99:                                               ; preds = %98, %79
  br label %100

100:                                              ; preds = %99, %53
  ret void
}