; Function Attrs: nounwind uwtable
define internal fastcc void @ir_emit_mov_ext(ptr nocapture readonly %.248.val, i32 noundef %0, i8 noundef signext %1, i8 noundef signext %2) unnamed_addr #1 {
  %4 = getelementptr inbounds i8, ptr %.248.val, i64 32
  %5 = zext nneg i32 %0 to i64
  %6 = getelementptr inbounds [14 x i8], ptr @ir_type_size, i64 0, i64 %5
  %7 = load i8, ptr %6, align 1
  %8 = icmp ugt i8 %7, 2
  br i1 %8, label %9, label %15

9:                                                ; preds = %3
  %10 = sext i8 %2 to i32
  %11 = sext i8 %1 to i32
  switch i8 %7, label %12 [
    i8 8, label %14
    i8 4, label %13
  ]

12:                                               ; preds = %9
  tail call void (ptr, i32, ...) @dasm_put(ptr noundef nonnull %4, i32 noundef 2123, i32 noundef %10, i32 noundef %11)
  br label %26

13:                                               ; preds = %9
  tail call void (ptr, i32, ...) @dasm_put(ptr noundef nonnull %4, i32 noundef 2132, i32 noundef %10, i32 noundef %11)
  br label %26

14:                                               ; preds = %9
  tail call void (ptr, i32, ...) @dasm_put(ptr noundef nonnull %4, i32 noundef 2140, i32 noundef %10, i32 noundef %11)
  br label %26

15:                                               ; preds = %3
  %16 = icmp eq i8 %7, 2
  %17 = icmp ugt i32 %0, 6
  %18 = sext i8 %1 to i32
  %19 = sext i8 %2 to i32
  br i1 %16, label %20, label %23

20:                                               ; preds = %15
  br i1 %17, label %21, label %22

21:                                               ; preds = %20
  tail call void (ptr, i32, ...) @dasm_put(ptr noundef nonnull %4, i32 noundef 2173, i32 noundef %18, i32 noundef %19)
  br label %26

22:                                               ; preds = %20
  tail call void (ptr, i32, ...) @dasm_put(ptr noundef nonnull %4, i32 noundef 2182, i32 noundef %18, i32 noundef %19)
  br label %26

23:                                               ; preds = %15
  br i1 %17, label %24, label %25

24:                                               ; preds = %23
  tail call void (ptr, i32, ...) @dasm_put(ptr noundef nonnull %4, i32 noundef 2191, i32 noundef %18, i32 noundef %19)
  br label %26

25:                                               ; preds = %23
  tail call void (ptr, i32, ...) @dasm_put(ptr noundef nonnull %4, i32 noundef 2200, i32 noundef %18, i32 noundef %19)
  br label %26

26:                                               ; preds = %22, %21, %25, %24, %12, %13, %14
  ret void
}